target datalayout = "e-m:e-p270:32:32-p271:32:32-p272:64:64-i64:64-i128:128-f80:128-n8:16:32:64-S128"
target triple = "x86_64-pc-linux-gnu"

%struct.AVChannelLayout = type { i32, i32, %union.anon.0, ptr }
%union.anon.0 = type { i64 }
%struct.AVCodecContext = type { ptr, i32, i32, ptr, i32, i32, ptr, ptr, ptr, i64, i32, i32, ptr, i32, %struct.AVRational, %struct.AVRational, %struct.AVRational, i32, i32, i32, i32, i32, %struct.AVRational, i32, i32, i32, i32, i32, i32, i32, i32, i32, i32, i32, ptr, ptr, i32, float, float, float, float, float, float, float, float, float, i32, i32, i32, i32, i32, i32, i32, i32, i32, i32, i32, i32, ptr, ptr, ptr, i32, i32, i32, i32, i32, i32, i32, i32, i32, i32, %struct.AVChannelLayout, i32, i32, i32, i32, i32, i32, i32, i32, ptr, i32, i32, i32, float, float, i32, i32, i32, i32, i32, ptr, i64, i64, float, float, i32, i32, ptr, ptr, i32, i32, i32, i32, i32, ptr, ptr, ptr, ptr, i32, i32, [8 x i64], i32, i32, i32, i32, i32, i32, i32, ptr, ptr, i32, i32, i32, i32, i32, i32, i32, i32, i32, i32, ptr, ptr, i32, i32, ptr, ptr, ptr, ptr, i32, i32, i64, i32, i32, i64, ptr, i64, ptr, i32, ptr, i32 }
%struct.AVRational = type { i32, i32 }
%struct.ILBCContext = type { ptr, i32, i32, %struct.ILBCFrame, i32, i32, i32, i32, i32, i16, i16, i32, i16, i16, [20 x i16], [10 x i16], [10 x i16], [10 x i16], [66 x i16], [66 x i16], [66 x i16], [643 x i16], [8 x i16], [240 x i16], [240 x i16], [250 x i16], i16, i16, i16, i16, i16, [11 x i16], [11 x i16], [2 x i16], [4 x i16] }
%struct.ILBCFrame = type { [6 x i16], [15 x i16], [15 x i16], i16, i16, [58 x i16], i16, i16 }

; Function Attrs: cold nounwind optsize uwtable
define internal i32 @ilbc_decode_init(ptr noundef %0) #0 {
  %2 = alloca i32, align 4
  %3 = alloca ptr, align 8
  %4 = alloca ptr, align 8
  %5 = alloca i32, align 4
  %6 = alloca %struct.AVChannelLayout, align 8
  store ptr %0, ptr %3, align 8, !tbaa !4
  call void @llvm.lifetime.start.p0(i64 8, ptr %4) #8
  %7 = load ptr, ptr %3, align 8, !tbaa !4
  %8 = getelementptr inbounds nuw %struct.AVCodecContext, ptr %7, i32 0, i32 6
  %9 = load ptr, ptr %8, align 8, !tbaa !9
  store ptr %9, ptr %4, align 8, !tbaa !29
  %10 = load ptr, ptr %3, align 8, !tbaa !4
  %11 = getelementptr inbounds nuw %struct.AVCodecContext, ptr %10, i32 0, i32 73
  %12 = load i32, ptr %11, align 4, !tbaa !31
  %13 = icmp eq i32 %12, 38
  br i1 %13, label %14, label %17

14:                                               ; preds = %1
  %15 = load ptr, ptr %4, align 8, !tbaa !29
  %16 = getelementptr inbounds nuw %struct.ILBCContext, ptr %15, i32 0, i32 2
  store i32 20, ptr %16, align 4, !tbaa !32
  br label %41

17:                                               ; preds = %1
  %18 = load ptr, ptr %3, align 8, !tbaa !4
  %19 = getelementptr inbounds nuw %struct.AVCodecContext, ptr %18, i32 0, i32 73
  %20 = load i32, ptr %19, align 4, !tbaa !31
  %21 = icmp eq i32 %20, 50
  br i1 %21, label %22, label %25

22:                                               ; preds = %17
  %23 = load ptr, ptr %4, align 8, !tbaa !29
  %24 = getelementptr inbounds nuw %struct.ILBCContext, ptr %23, i32 0, i32 2
  store i32 30, ptr %24, align 4, !tbaa !32
  br label %40

25:                                               ; preds = %17
  %26 = load ptr, ptr %3, align 8, !tbaa !4
  %27 = getelementptr inbounds nuw %struct.AVCodecContext, ptr %26, i32 0, i32 9
  %28 = load i64, ptr %27, align 8, !tbaa !36
  %29 = icmp sgt i64 %28, 0
  br i1 %29, label %30, label %38

30:                                               ; preds = %25
  %31 = load ptr, ptr %3, align 8, !tbaa !4
  %32 = getelementptr inbounds nuw %struct.AVCodecContext, ptr %31, i32 0, i32 9
  %33 = load i64, ptr %32, align 8, !tbaa !36
  %34 = icmp sle i64 %33, 14000
  %35 = select i1 %34, i32 30, i32 20
  %36 = load ptr, ptr %4, align 8, !tbaa !29
  %37 = getelementptr inbounds nuw %struct.ILBCContext, ptr %36, i32 0, i32 2
  store i32 %35, ptr %37, align 4, !tbaa !32
  br label %39

38:                                               ; preds = %25
  store i32 -1094995529, ptr %2, align 4
  store i32 1, ptr %5, align 4
  br label %81

39:                                               ; preds = %30
  br label %40

40:                                               ; preds = %39, %22
  br label %41

41:                                               ; preds = %40, %14
  %42 = load ptr, ptr %3, align 8, !tbaa !4
  %43 = getelementptr inbounds nuw %struct.AVCodecContext, ptr %42, i32 0, i32 71
  call void @av_channel_layout_uninit(ptr noundef %43)
  %44 = load ptr, ptr %3, align 8, !tbaa !4
  %45 = getelementptr inbounds nuw %struct.AVCodecContext, ptr %44, i32 0, i32 71
  %46 = getelementptr inbounds nuw %struct.AVChannelLayout, ptr %6, i32 0, i32 0
  store i32 1, ptr %46, align 8, !tbaa !37
  %47 = getelementptr inbounds nuw %struct.AVChannelLayout, ptr %6, i32 0, i32 1
  store i32 1, ptr %47, align 4, !tbaa !38
  %48 = getelementptr inbounds nuw %struct.AVChannelLayout, ptr %6, i32 0, i32 2
  store i64 4, ptr %48, align 8, !tbaa !39
  %49 = getelementptr inbounds nuw %struct.AVChannelLayout, ptr %6, i32 0, i32 3
  store ptr null, ptr %49, align 8, !tbaa !40
  call void @llvm.memcpy.p0.p0.i64(ptr align 8 %45, ptr align 8 %6, i64 24, i1 false), !tbaa.struct !41
  %50 = load ptr, ptr %3, align 8, !tbaa !4
  %51 = getelementptr inbounds nuw %struct.AVCodecContext, ptr %50, i32 0, i32 69
  store i32 8000, ptr %51, align 8, !tbaa !44
  %52 = load ptr, ptr %3, align 8, !tbaa !4
  %53 = getelementptr inbounds nuw %struct.AVCodecContext, ptr %52, i32 0, i32 70
  store i32 1, ptr %53, align 4, !tbaa !45
  %54 = load ptr, ptr %4, align 8, !tbaa !29
  %55 = getelementptr inbounds nuw %struct.ILBCContext, ptr %54, i32 0, i32 2
  %56 = load i32, ptr %55, align 4, !tbaa !32
  %57 = icmp eq i32 %56, 30
  br i1 %57, label %58, label %69

58:                                               ; preds = %41
  %59 = load ptr, ptr %4, align 8, !tbaa !29
  %60 = getelementptr inbounds nuw %struct.ILBCContext, ptr %59, i32 0, i32 11
  store i32 240, ptr %60, align 4, !tbaa !46
  %61 = load ptr, ptr %4, align 8, !tbaa !29
  %62 = getelementptr inbounds nuw %struct.ILBCContext, ptr %61, i32 0, i32 10
  store i16 6, ptr %62, align 2, !tbaa !47
  %63 = load ptr, ptr %4, align 8, !tbaa !29
  %64 = getelementptr inbounds nuw %struct.ILBCContext, ptr %63, i32 0, i32 9
  store i16 4, ptr %64, align 8, !tbaa !48
  %65 = load ptr, ptr %4, align 8, !tbaa !29
  %66 = getelementptr inbounds nuw %struct.ILBCContext, ptr %65, i32 0, i32 8
  store i32 2, ptr %66, align 4, !tbaa !49
  %67 = load ptr, ptr %4, align 8, !tbaa !29
  %68 = getelementptr inbounds nuw %struct.ILBCContext, ptr %67, i32 0, i32 7
  store i32 58, ptr %68, align 8, !tbaa !50
  br label %80

69:                                               ; preds = %41
  %70 = load ptr, ptr %4, align 8, !tbaa !29
  %71 = getelementptr inbounds nuw %struct.ILBCContext, ptr %70, i32 0, i32 11
  store i32 160, ptr %71, align 4, !tbaa !46
  %72 = load ptr, ptr %4, align 8, !tbaa !29
  %73 = getelementptr inbounds nuw %struct.ILBCContext, ptr %72, i32 0, i32 10
  store i16 4, ptr %73, align 2, !tbaa !47
  %74 = load ptr, ptr %4, align 8, !tbaa !29
  %75 = getelementptr inbounds nuw %struct.ILBCContext, ptr %74, i32 0, i32 9
  store i16 2, ptr %75, align 8, !tbaa !48
  %76 = load ptr, ptr %4, align 8, !tbaa !29
  %77 = getelementptr inbounds nuw %struct.ILBCContext, ptr %76, i32 0, i32 8
  store i32 1, ptr %77, align 4, !tbaa !49
  %78 = load ptr, ptr %4, align 8, !tbaa !29
  %79 = getelementptr inbounds nuw %struct.ILBCContext, ptr %78, i32 0, i32 7
  store i32 57, ptr %79, align 8, !tbaa !50
  br label %80

80:                                               ; preds = %69, %58
  store i32 0, ptr %2, align 4
  store i32 1, ptr %5, align 4
  br label %81

81:                                               ; preds = %80, %38
  call void @llvm.lifetime.end.p0(i64 8, ptr %4) #8
  %82 = load i32, ptr %2, align 4
  ret i32 %82
}