; Function Attrs: cold nounwind optsize uwtable
define internal range(i32 -1094995529, 1) i32 @ilbc_decode_init(ptr noundef %0) #0 {
  %2 = getelementptr inbounds nuw i8, ptr %0, i64 32
  %3 = load ptr, ptr %2, align 8, !tbaa !4
  %4 = getelementptr inbounds nuw i8, ptr %0, i64 380
  %5 = load i32, ptr %4, align 4, !tbaa !27
  switch i32 %5, label %7 [
    i32 38, label %.sink.split
    i32 50, label %6
  ]

6:                                                ; preds = %1
  br label %.sink.split

7:                                                ; preds = %1
  %8 = getelementptr inbounds nuw i8, ptr %0, i64 56
  %9 = load i64, ptr %8, align 8, !tbaa !28
  %10 = icmp sgt i64 %9, 0
  br i1 %10, label %11, label %26

11:                                               ; preds = %7
  %12 = icmp samesign ult i64 %9, 14001
  %13 = select i1 %12, i32 30, i32 20
  br label %.sink.split

.sink.split:                                      ; preds = %1, %6, %11
  %.sink = phi i32 [ 30, %6 ], [ %13, %11 ], [ 20, %1 ]
  %14 = getelementptr inbounds nuw i8, ptr %3, i64 12
  store i32 %.sink, ptr %14, align 4, !tbaa !29
  %15 = getelementptr inbounds nuw i8, ptr %0, i64 352
  tail call void @av_channel_layout_uninit(ptr noundef nonnull %15) #9
  store i32 1, ptr %15, align 8, !tbaa !33
  %.sroa.2.0..sroa_idx = getelementptr inbounds nuw i8, ptr %0, i64 356
  store i32 1, ptr %.sroa.2.0..sroa_idx, align 4, !tbaa !33
  %.sroa.3.0..sroa_idx = getelementptr inbounds nuw i8, ptr %0, i64 360
  store i64 4, ptr %.sroa.3.0..sroa_idx, align 8, !tbaa !34
  %.sroa.4.0..sroa_idx = getelementptr inbounds nuw i8, ptr %0, i64 368
  store ptr null, ptr %.sroa.4.0..sroa_idx, align 8, !tbaa !35
  %16 = getelementptr inbounds nuw i8, ptr %0, i64 344
  store i32 8000, ptr %16, align 8, !tbaa !36
  %17 = getelementptr inbounds nuw i8, ptr %0, i64 348
  store i32 1, ptr %17, align 4, !tbaa !37
  %18 = getelementptr inbounds nuw i8, ptr %3, i64 12
  %19 = load i32, ptr %18, align 4, !tbaa !29
  %20 = icmp eq i32 %19, 30
  %. = select i1 %20, i32 240, i32 160
  %.36 = select i1 %20, i16 6, i16 4
  %.37 = select i1 %20, i16 4, i16 2
  %.38 = select i1 %20, i32 2, i32 1
  %.39 = select i1 %20, i32 58, i32 57
  %21 = getelementptr inbounds nuw i8, ptr %3, i64 236
  store i32 %., ptr %21, align 4, !tbaa !38
  %22 = getelementptr inbounds nuw i8, ptr %3, i64 234
  store i16 %.36, ptr %22, align 2, !tbaa !39
  %23 = getelementptr inbounds nuw i8, ptr %3, i64 232
  store i16 %.37, ptr %23, align 8, !tbaa !40
  %24 = getelementptr inbounds nuw i8, ptr %3, i64 228
  store i32 %.38, ptr %24, align 4, !tbaa !41
  %25 = getelementptr inbounds nuw i8, ptr %3, i64 224
  store i32 %.39, ptr %25, align 8, !tbaa !42
  br label %26

26:                                               ; preds = %.sink.split, %7
  %.0 = phi i32 [ -1094995529, %7 ], [ 0, %.sink.split ]
  ret i32 %.0
}